target datalayout = "e-m:e-p270:32:32-p271:32:32-p272:64:64-i64:64-i128:128-f80:128-n8:16:32:64-S128"
target triple = "x86_64-pc-linux-gnu"

; Function Attrs: mustprogress uwtable
define void @_ZN32pxrInternal_v0_24__pxrReserved__25UsdImagingDrawModeAdapter19MarkVisibilityDirtyERKNS_7UsdPrimERKNS_7SdfPathEPNS_20UsdImagingIndexProxyE(ptr noundef nonnull align 8 dereferenceable(156) %0, ptr noundef nonnull align 8 dereferenceable(32) %1, ptr noundef nonnull align 4 dereferenceable(8) %2, ptr noundef %3) unnamed_addr #0 align 2 {
  %5 = alloca ptr, align 8
  %6 = alloca ptr, align 8
  %7 = alloca ptr, align 8
  %8 = alloca ptr, align 8
  store ptr %0, ptr %5, align 8
  store ptr %1, ptr %6, align 8
  store ptr %2, ptr %7, align 8
  store ptr %3, ptr %8, align 8
  %9 = load ptr, ptr %5, align 8
  %10 = load ptr, ptr %7, align 8
  %11 = call noundef zeroext i1 @_ZNK32pxrInternal_v0_24__pxrReserved__25UsdImagingDrawModeAdapter15_IsMaterialPathERKNS_7SdfPathE(ptr noundef nonnull align 8 dereferenceable(156) %9, ptr noundef nonnull align 4 dereferenceable(8) %10)
  br i1 %11, label %15, label %12

12:                                               ; preds = %4
  %13 = load ptr, ptr %8, align 8
  %14 = load ptr, ptr %7, align 8
  call void @_ZN32pxrInternal_v0_24__pxrReserved__20UsdImagingIndexProxy14MarkRprimDirtyERKNS_7SdfPathEj(ptr noundef nonnull align 8 dereferenceable(184) %13, ptr noundef nonnull align 4 dereferenceable(8) %14, i32 noundef 1024)
  br label %15

15:                                               ; preds = %12, %4
  ret void
}